; Function Attrs: mustprogress uwtable
define { i64, ptr } @_ZNK13sentencepiece14ModelInterface9pad_pieceEv(ptr nocapture noundef nonnull readonly align 8 dereferenceable(152) %0) local_unnamed_addr #3 align 2 personality ptr @__gxx_personality_v0 {
  %2 = getelementptr inbounds i8, ptr %0, i64 8
  %3 = load ptr, ptr %2, align 8
  %4 = getelementptr inbounds i8, ptr %3, i64 72
  %5 = load ptr, ptr %4, align 8
  %.not.i.i = icmp eq ptr %5, null
  %6 = select i1 %.not.i.i, ptr @_ZN13sentencepiece30_TrainerSpec_default_instance_E, ptr %5
  %7 = getelementptr inbounds i8, ptr %6, i64 208
  %8 = load ptr, ptr %7, align 8
  %9 = icmp eq ptr %8, null
  br i1 %9, label %10, label %15

10:                                               ; preds = %1
  %11 = load atomic i64, ptr getelementptr inbounds (i8, ptr @_ZN13sentencepiece11TrainerSpec56_i_give_permission_to_break_this_code_default_pad_piece_E, i64 32) acquire, align 8
  %.0.i.i.i = inttoptr i64 %11 to ptr
  %12 = icmp eq i64 %11, 0
  br i1 %12, label %13, label %_ZNK13sentencepiece11TrainerSpec9pad_pieceB5cxx11Ev.exit

13:                                               ; preds = %10
  %14 = tail call noundef nonnull align 8 dereferenceable(32) ptr @_ZNK6google8protobuf8internal10LazyString4InitB5cxx11Ev(ptr noundef nonnull align 8 dereferenceable(40) @_ZN13sentencepiece11TrainerSpec56_i_give_permission_to_break_this_code_default_pad_piece_E)
  br label %_ZNK13sentencepiece11TrainerSpec9pad_pieceB5cxx11Ev.exit

15:                                               ; preds = %1
  %16 = ptrtoint ptr %8 to i64
  %17 = and i64 %16, -2
  %18 = inttoptr i64 %17 to ptr
  br label %_ZNK13sentencepiece11TrainerSpec9pad_pieceB5cxx11Ev.exit

_ZNK13sentencepiece11TrainerSpec9pad_pieceB5cxx11Ev.exit: ; preds = %10, %13, %15
  %.0.i = phi ptr [ %18, %15 ], [ %14, %13 ], [ %.0.i.i.i, %10 ]
  %19 = tail call noundef zeroext i1 @_ZNKSt7__cxx1112basic_stringIcSt11char_traitsIcESaIcEE5emptyEv(ptr noundef nonnull align 8 dereferenceable(32) %.0.i) #21
  br i1 %19, label %40, label %20

20:                                               ; preds = %_ZNK13sentencepiece11TrainerSpec9pad_pieceB5cxx11Ev.exit
  %21 = load ptr, ptr %2, align 8
  %22 = getelementptr inbounds i8, ptr %21, i64 72
  %23 = load ptr, ptr %22, align 8
  %.not.i.i1 = icmp eq ptr %23, null
  %24 = select i1 %.not.i.i1, ptr @_ZN13sentencepiece30_TrainerSpec_default_instance_E, ptr %23
  %25 = getelementptr inbounds i8, ptr %24, i64 208
  %26 = load ptr, ptr %25, align 8
  %27 = icmp eq ptr %26, null
  br i1 %27, label %28, label %33

28:                                               ; preds = %20
  %29 = load atomic i64, ptr getelementptr inbounds (i8, ptr @_ZN13sentencepiece11TrainerSpec56_i_give_permission_to_break_this_code_default_pad_piece_E, i64 32) acquire, align 8
  %.0.i.i.i3 = inttoptr i64 %29 to ptr
  %30 = icmp eq i64 %29, 0
  br i1 %30, label %31, label %_ZNK13sentencepiece11TrainerSpec9pad_pieceB5cxx11Ev.exit4

31:                                               ; preds = %28
  %32 = tail call noundef nonnull align 8 dereferenceable(32) ptr @_ZNK6google8protobuf8internal10LazyString4InitB5cxx11Ev(ptr noundef nonnull align 8 dereferenceable(40) @_ZN13sentencepiece11TrainerSpec56_i_give_permission_to_break_this_code_default_pad_piece_E)
  br label %_ZNK13sentencepiece11TrainerSpec9pad_pieceB5cxx11Ev.exit4

33:                                               ; preds = %20
  %34 = ptrtoint ptr %26 to i64
  %35 = and i64 %34, -2
  %36 = inttoptr i64 %35 to ptr
  br label %_ZNK13sentencepiece11TrainerSpec9pad_pieceB5cxx11Ev.exit4

_ZNK13sentencepiece11TrainerSpec9pad_pieceB5cxx11Ev.exit4: ; preds = %28, %31, %33
  %.0.i2 = phi ptr [ %36, %33 ], [ %32, %31 ], [ %.0.i.i.i3, %28 ]
  %37 = tail call { i64, ptr } @_ZNKSt7__cxx1112basic_stringIcSt11char_traitsIcESaIcEEcvSt17basic_string_viewIcS2_EEv(ptr noundef nonnull align 8 dereferenceable(32) %.0.i2) #21
  %38 = extractvalue { i64, ptr } %37, 0
  %39 = extractvalue { i64, ptr } %37, 1
  br label %40

40:                                               ; preds = %_ZNK13sentencepiece11TrainerSpec9pad_pieceB5cxx11Ev.exit, %_ZNK13sentencepiece11TrainerSpec9pad_pieceB5cxx11Ev.exit4
  %.sroa.3.0 = phi ptr [ %39, %_ZNK13sentencepiece11TrainerSpec9pad_pieceB5cxx11Ev.exit4 ], [ @.str.3, %_ZNK13sentencepiece11TrainerSpec9pad_pieceB5cxx11Ev.exit ]
  %.sroa.0.0 = phi i64 [ %38, %_ZNK13sentencepiece11TrainerSpec9pad_pieceB5cxx11Ev.exit4 ], [ 5, %_ZNK13sentencepiece11TrainerSpec9pad_pieceB5cxx11Ev.exit ]
  %.fca.0.insert = insertvalue { i64, ptr } poison, i64 %.sroa.0.0, 0
  %.fca.1.insert = insertvalue { i64, ptr } %.fca.0.insert, ptr %.sroa.3.0, 1
  ret { i64, ptr } %.fca.1.insert
}